target datalayout = "e-m:e-p270:32:32-p271:32:32-p272:64:64-i64:64-i128:128-f80:128-n8:16:32:64-S128"
target triple = "x86_64-pc-linux-gnu"

%struct._zval_struct = type { %union._zend_value, %union.anon, %union.anon.2 }
%union._zend_value = type { i64 }
%union.anon = type { i32 }
%union.anon.2 = type { i32 }
%struct.php_stream_pdosqlite3_data = type { ptr, i64, i64, i32 }
%struct._php_stream = type { ptr, ptr, %struct._php_stream_filter_chain, %struct._php_stream_filter_chain, ptr, ptr, %struct._zval_struct, i16, [16 x i8], i32, ptr, ptr, ptr, ptr, i64, ptr, i64, i64, i64, i64, ptr }
%struct._php_stream_filter_chain = type { ptr, ptr, ptr }

; Function Attrs: nounwind uwtable
define internal i32 @php_pdosqlite3_stream_seek(ptr noundef %0, i64 noundef %1, i32 noundef %2, ptr noundef %3) #0 {
  %5 = alloca i32, align 4
  %6 = alloca ptr, align 8
  %7 = alloca i64, align 8
  %8 = alloca i32, align 4
  %9 = alloca ptr, align 8
  %10 = alloca ptr, align 8
  %11 = alloca i32, align 4
  store ptr %0, ptr %6, align 8, !tbaa !89
  store i64 %1, ptr %7, align 8, !tbaa !49
  store i32 %2, ptr %8, align 4, !tbaa !4
  store ptr %3, ptr %9, align 8, !tbaa !107
  call void @llvm.lifetime.start.p0(i64 8, ptr %10) #12
  %12 = load ptr, ptr %6, align 8, !tbaa !89
  %13 = getelementptr inbounds nuw %struct._php_stream, ptr %12, i32 0, i32 1
  %14 = load ptr, ptr %13, align 8, !tbaa !106
  store ptr %14, ptr %10, align 8, !tbaa !71
  %15 = load i32, ptr %8, align 4, !tbaa !4
  switch i32 %15, label %145 [
    i32 1, label %16
    i32 0, label %81
    i32 2, label %107
  ]

16:                                               ; preds = %4
  %17 = load i64, ptr %7, align 8, !tbaa !49
  %18 = icmp slt i64 %17, 0
  br i1 %18, label %19, label %47

19:                                               ; preds = %16
  %20 = load ptr, ptr %10, align 8, !tbaa !71
  %21 = getelementptr inbounds nuw %struct.php_stream_pdosqlite3_data, ptr %20, i32 0, i32 1
  %22 = load i64, ptr %21, align 8, !tbaa !87
  %23 = load i64, ptr %7, align 8, !tbaa !49
  %24 = sub nsw i64 0, %23
  %25 = icmp ult i64 %22, %24
  br i1 %25, label %26, label %30

26:                                               ; preds = %19
  %27 = load ptr, ptr %10, align 8, !tbaa !71
  %28 = getelementptr inbounds nuw %struct.php_stream_pdosqlite3_data, ptr %27, i32 0, i32 1
  store i64 0, ptr %28, align 8, !tbaa !87
  %29 = load ptr, ptr %9, align 8, !tbaa !107
  store i64 -1, ptr %29, align 8, !tbaa !49
  store i32 -1, ptr %5, align 4
  store i32 1, ptr %11, align 4
  br label %150

30:                                               ; preds = %19
  %31 = load ptr, ptr %10, align 8, !tbaa !71
  %32 = getelementptr inbounds nuw %struct.php_stream_pdosqlite3_data, ptr %31, i32 0, i32 1
  %33 = load i64, ptr %32, align 8, !tbaa !87
  %34 = load i64, ptr %7, align 8, !tbaa !49
  %35 = add i64 %33, %34
  %36 = load ptr, ptr %10, align 8, !tbaa !71
  %37 = getelementptr inbounds nuw %struct.php_stream_pdosqlite3_data, ptr %36, i32 0, i32 1
  store i64 %35, ptr %37, align 8, !tbaa !87
  %38 = load ptr, ptr %10, align 8, !tbaa !71
  %39 = getelementptr inbounds nuw %struct.php_stream_pdosqlite3_data, ptr %38, i32 0, i32 1
  %40 = load i64, ptr %39, align 8, !tbaa !87
  %41 = load ptr, ptr %9, align 8, !tbaa !107
  store i64 %40, ptr %41, align 8, !tbaa !49
  %42 = load ptr, ptr %6, align 8, !tbaa !89
  %43 = getelementptr inbounds nuw %struct._php_stream, ptr %42, i32 0, i32 7
  %44 = load i16, ptr %43, align 8
  %45 = and i16 %44, -9
  %46 = or i16 %45, 0
  store i16 %46, ptr %43, align 8
  store i32 0, ptr %5, align 4
  store i32 1, ptr %11, align 4
  br label %150

47:                                               ; preds = %16
  %48 = load ptr, ptr %10, align 8, !tbaa !71
  %49 = getelementptr inbounds nuw %struct.php_stream_pdosqlite3_data, ptr %48, i32 0, i32 1
  %50 = load i64, ptr %49, align 8, !tbaa !87
  %51 = load i64, ptr %7, align 8, !tbaa !49
  %52 = add i64 %50, %51
  %53 = load ptr, ptr %10, align 8, !tbaa !71
  %54 = getelementptr inbounds nuw %struct.php_stream_pdosqlite3_data, ptr %53, i32 0, i32 2
  %55 = load i64, ptr %54, align 8, !tbaa !88
  %56 = icmp ugt i64 %52, %55
  br i1 %56, label %57, label %64

57:                                               ; preds = %47
  %58 = load ptr, ptr %10, align 8, !tbaa !71
  %59 = getelementptr inbounds nuw %struct.php_stream_pdosqlite3_data, ptr %58, i32 0, i32 2
  %60 = load i64, ptr %59, align 8, !tbaa !88
  %61 = load ptr, ptr %10, align 8, !tbaa !71
  %62 = getelementptr inbounds nuw %struct.php_stream_pdosqlite3_data, ptr %61, i32 0, i32 1
  store i64 %60, ptr %62, align 8, !tbaa !87
  %63 = load ptr, ptr %9, align 8, !tbaa !107
  store i64 -1, ptr %63, align 8, !tbaa !49
  store i32 -1, ptr %5, align 4
  store i32 1, ptr %11, align 4
  br label %150

64:                                               ; preds = %47
  %65 = load ptr, ptr %10, align 8, !tbaa !71
  %66 = getelementptr inbounds nuw %struct.php_stream_pdosqlite3_data, ptr %65, i32 0, i32 1
  %67 = load i64, ptr %66, align 8, !tbaa !87
  %68 = load i64, ptr %7, align 8, !tbaa !49
  %69 = add i64 %67, %68
  %70 = load ptr, ptr %10, align 8, !tbaa !71
  %71 = getelementptr inbounds nuw %struct.php_stream_pdosqlite3_data, ptr %70, i32 0, i32 1
  store i64 %69, ptr %71, align 8, !tbaa !87
  %72 = load ptr, ptr %10, align 8, !tbaa !71
  %73 = getelementptr inbounds nuw %struct.php_stream_pdosqlite3_data, ptr %72, i32 0, i32 1
  %74 = load i64, ptr %73, align 8, !tbaa !87
  %75 = load ptr, ptr %9, align 8, !tbaa !107
  store i64 %74, ptr %75, align 8, !tbaa !49
  %76 = load ptr, ptr %6, align 8, !tbaa !89
  %77 = getelementptr inbounds nuw %struct._php_stream, ptr %76, i32 0, i32 7
  %78 = load i16, ptr %77, align 8
  %79 = and i16 %78, -9
  %80 = or i16 %79, 0
  store i16 %80, ptr %77, align 8
  store i32 0, ptr %5, align 4
  store i32 1, ptr %11, align 4
  br label %150

81:                                               ; preds = %4
  %82 = load ptr, ptr %10, align 8, !tbaa !71
  %83 = getelementptr inbounds nuw %struct.php_stream_pdosqlite3_data, ptr %82, i32 0, i32 2
  %84 = load i64, ptr %83, align 8, !tbaa !88
  %85 = load i64, ptr %7, align 8, !tbaa !49
  %86 = icmp ult i64 %84, %85
  br i1 %86, label %87, label %94

87:                                               ; preds = %81
  %88 = load ptr, ptr %10, align 8, !tbaa !71
  %89 = getelementptr inbounds nuw %struct.php_stream_pdosqlite3_data, ptr %88, i32 0, i32 2
  %90 = load i64, ptr %89, align 8, !tbaa !88
  %91 = load ptr, ptr %10, align 8, !tbaa !71
  %92 = getelementptr inbounds nuw %struct.php_stream_pdosqlite3_data, ptr %91, i32 0, i32 1
  store i64 %90, ptr %92, align 8, !tbaa !87
  %93 = load ptr, ptr %9, align 8, !tbaa !107
  store i64 -1, ptr %93, align 8, !tbaa !49
  store i32 -1, ptr %5, align 4
  store i32 1, ptr %11, align 4
  br label %150

94:                                               ; preds = %81
  %95 = load i64, ptr %7, align 8, !tbaa !49
  %96 = load ptr, ptr %10, align 8, !tbaa !71
  %97 = getelementptr inbounds nuw %struct.php_stream_pdosqlite3_data, ptr %96, i32 0, i32 1
  store i64 %95, ptr %97, align 8, !tbaa !87
  %98 = load ptr, ptr %10, align 8, !tbaa !71
  %99 = getelementptr inbounds nuw %struct.php_stream_pdosqlite3_data, ptr %98, i32 0, i32 1
  %100 = load i64, ptr %99, align 8, !tbaa !87
  %101 = load ptr, ptr %9, align 8, !tbaa !107
  store i64 %100, ptr %101, align 8, !tbaa !49
  %102 = load ptr, ptr %6, align 8, !tbaa !89
  %103 = getelementptr inbounds nuw %struct._php_stream, ptr %102, i32 0, i32 7
  %104 = load i16, ptr %103, align 8
  %105 = and i16 %104, -9
  %106 = or i16 %105, 0
  store i16 %106, ptr %103, align 8
  store i32 0, ptr %5, align 4
  store i32 1, ptr %11, align 4
  br label %150

107:                                              ; preds = %4
  %108 = load i64, ptr %7, align 8, !tbaa !49
  %109 = icmp sgt i64 %108, 0
  br i1 %109, label %110, label %117

110:                                              ; preds = %107
  %111 = load ptr, ptr %10, align 8, !tbaa !71
  %112 = getelementptr inbounds nuw %struct.php_stream_pdosqlite3_data, ptr %111, i32 0, i32 2
  %113 = load i64, ptr %112, align 8, !tbaa !88
  %114 = load ptr, ptr %10, align 8, !tbaa !71
  %115 = getelementptr inbounds nuw %struct.php_stream_pdosqlite3_data, ptr %114, i32 0, i32 1
  store i64 %113, ptr %115, align 8, !tbaa !87
  %116 = load ptr, ptr %9, align 8, !tbaa !107
  store i64 -1, ptr %116, align 8, !tbaa !49
  store i32 -1, ptr %5, align 4
  store i32 1, ptr %11, align 4
  br label %150

117:                                              ; preds = %107
  %118 = load ptr, ptr %10, align 8, !tbaa !71
  %119 = getelementptr inbounds nuw %struct.php_stream_pdosqlite3_data, ptr %118, i32 0, i32 2
  %120 = load i64, ptr %119, align 8, !tbaa !88
  %121 = load i64, ptr %7, align 8, !tbaa !49
  %122 = sub nsw i64 0, %121
  %123 = icmp ult i64 %120, %122
  br i1 %123, label %124, label %128

124:                                              ; preds = %117
  %125 = load ptr, ptr %10, align 8, !tbaa !71
  %126 = getelementptr inbounds nuw %struct.php_stream_pdosqlite3_data, ptr %125, i32 0, i32 1
  store i64 0, ptr %126, align 8, !tbaa !87
  %127 = load ptr, ptr %9, align 8, !tbaa !107
  store i64 -1, ptr %127, align 8, !tbaa !49
  store i32 -1, ptr %5, align 4
  store i32 1, ptr %11, align 4
  br label %150

128:                                              ; preds = %117
  %129 = load ptr, ptr %10, align 8, !tbaa !71
  %130 = getelementptr inbounds nuw %struct.php_stream_pdosqlite3_data, ptr %129, i32 0, i32 2
  %131 = load i64, ptr %130, align 8, !tbaa !88
  %132 = load i64, ptr %7, align 8, !tbaa !49
  %133 = add i64 %131, %132
  %134 = load ptr, ptr %10, align 8, !tbaa !71
  %135 = getelementptr inbounds nuw %struct.php_stream_pdosqlite3_data, ptr %134, i32 0, i32 1
  store i64 %133, ptr %135, align 8, !tbaa !87
  %136 = load ptr, ptr %10, align 8, !tbaa !71
  %137 = getelementptr inbounds nuw %struct.php_stream_pdosqlite3_data, ptr %136, i32 0, i32 1
  %138 = load i64, ptr %137, align 8, !tbaa !87
  %139 = load ptr, ptr %9, align 8, !tbaa !107
  store i64 %138, ptr %139, align 8, !tbaa !49
  %140 = load ptr, ptr %6, align 8, !tbaa !89
  %141 = getelementptr inbounds nuw %struct._php_stream, ptr %140, i32 0, i32 7
  %142 = load i16, ptr %141, align 8
  %143 = and i16 %142, -9
  %144 = or i16 %143, 0
  store i16 %144, ptr %141, align 8
  store i32 0, ptr %5, align 4
  store i32 1, ptr %11, align 4
  br label %150

145:                                              ; preds = %4
  %146 = load ptr, ptr %10, align 8, !tbaa !71
  %147 = getelementptr inbounds nuw %struct.php_stream_pdosqlite3_data, ptr %146, i32 0, i32 1
  %148 = load i64, ptr %147, align 8, !tbaa !87
  %149 = load ptr, ptr %9, align 8, !tbaa !107
  store i64 %148, ptr %149, align 8, !tbaa !49
  store i32 -1, ptr %5, align 4
  store i32 1, ptr %11, align 4
  br label %150

150:                                              ; preds = %145, %128, %124, %110, %94, %87, %64, %57, %30, %26
  call void @llvm.lifetime.end.p0(i64 8, ptr %10) #12
  %151 = load i32, ptr %5, align 4
  ret i32 %151
}